target datalayout = "e-m:e-p270:32:32-p271:32:32-p272:64:64-i64:64-i128:128-f80:128-n8:16:32:64-S128"
target triple = "x86_64-pc-linux-gnu"

%struct.ssl_st = type { i32, ptr, ptr, ptr, %struct.CRYPTO_REF_COUNT, ptr, %struct.crypto_ex_data_st }
%struct.CRYPTO_REF_COUNT = type { i32 }
%struct.crypto_ex_data_st = type { ptr, ptr }
%struct.tls_group_info_st = type { ptr, ptr, ptr, i32, i16, i32, i32, i32, i32, i8 }

; Function Attrs: nounwind uwtable
define ptr @SSL_group_to_name(ptr noundef %0, i32 noundef %1) #0 {
  %3 = alloca ptr, align 8
  %4 = alloca ptr, align 8
  %5 = alloca i32, align 4
  %6 = alloca i32, align 4
  %7 = alloca ptr, align 8
  %8 = alloca i32, align 4
  store ptr %0, ptr %4, align 8, !tbaa !23
  store i32 %1, ptr %5, align 4, !tbaa !18
  call void @llvm.lifetime.start.p0(i64 4, ptr %6) #10
  store i32 0, ptr %6, align 4, !tbaa !18
  call void @llvm.lifetime.start.p0(i64 8, ptr %7) #10
  store ptr null, ptr %7, align 8, !tbaa !142
  %9 = load i32, ptr %5, align 4, !tbaa !18
  %10 = and i32 %9, 16777216
  %11 = icmp ne i32 %10, 0
  br i1 %11, label %12, label %15

12:                                               ; preds = %2
  %13 = load i32, ptr %5, align 4, !tbaa !18
  %14 = and i32 %13, 65535
  store i32 %14, ptr %6, align 4, !tbaa !18
  br label %19

15:                                               ; preds = %2
  %16 = load i32, ptr %5, align 4, !tbaa !18
  %17 = call zeroext i16 @tls1_nid2group_id(i32 noundef %16)
  %18 = zext i16 %17 to i32
  store i32 %18, ptr %6, align 4, !tbaa !18
  br label %19

19:                                               ; preds = %15, %12
  %20 = load ptr, ptr %4, align 8, !tbaa !23
  %21 = getelementptr inbounds nuw %struct.ssl_st, ptr %20, i32 0, i32 1
  %22 = load ptr, ptr %21, align 8, !tbaa !140
  %23 = load i32, ptr %6, align 4, !tbaa !18
  %24 = trunc i32 %23 to i16
  %25 = call ptr @tls1_group_id_lookup(ptr noundef %22, i16 noundef zeroext %24)
  store ptr %25, ptr %7, align 8, !tbaa !142
  %26 = load ptr, ptr %7, align 8, !tbaa !142
  %27 = icmp ne ptr %26, null
  br i1 %27, label %28, label %32

28:                                               ; preds = %19
  %29 = load ptr, ptr %7, align 8, !tbaa !142
  %30 = getelementptr inbounds nuw %struct.tls_group_info_st, ptr %29, i32 0, i32 0
  %31 = load ptr, ptr %30, align 8, !tbaa !266
  store ptr %31, ptr %3, align 8
  store i32 1, ptr %8, align 4
  br label %33

32:                                               ; preds = %19
  store ptr null, ptr %3, align 8
  store i32 1, ptr %8, align 4
  br label %33

33:                                               ; preds = %32, %28
  call void @llvm.lifetime.end.p0(i64 8, ptr %7) #10
  call void @llvm.lifetime.end.p0(i64 4, ptr %6) #10
  %34 = load ptr, ptr %3, align 8
  ret ptr %34
}