; Function Attrs: nounwind uwtable
define ptr @SSL_group_to_name(ptr noundef readonly captures(none) %0, i32 noundef %1) local_unnamed_addr #4 {
  %3 = and i32 %1, 16777216
  %.not = icmp eq i32 %3, 0
  br i1 %.not, label %6, label %4

4:                                                ; preds = %2
  %5 = trunc i32 %1 to i16
  br label %8

6:                                                ; preds = %2
  %7 = tail call zeroext i16 @tls1_nid2group_id(i32 noundef %1) #18
  br label %8

8:                                                ; preds = %6, %4
  %.0 = phi i16 [ %5, %4 ], [ %7, %6 ]
  %9 = getelementptr inbounds nuw i8, ptr %0, i64 8
  %10 = load ptr, ptr %9, align 8, !tbaa !127
  %11 = tail call ptr @tls1_group_id_lookup(ptr noundef %10, i16 noundef zeroext %.0) #18
  %.not9 = icmp eq ptr %11, null
  br i1 %.not9, label %14, label %12

12:                                               ; preds = %8
  %13 = load ptr, ptr %11, align 8, !tbaa !243
  br label %14

14:                                               ; preds = %8, %12
  %.07 = phi ptr [ %13, %12 ], [ null, %8 ]
  ret ptr %.07
}